target datalayout = "e-m:e-p270:32:32-p271:32:32-p272:64:64-i64:64-i128:128-f80:128-n8:16:32:64-S128"
target triple = "x86_64-pc-linux-gnu"

%"class.ZXing::Pdf417::DetectionResultColumn" = type <{ %"class.ZXing::Pdf417::BoundingBox", %"class.std::vector", i32, [4 x i8] }>
%"class.ZXing::Pdf417::BoundingBox" = type { i32, i32, %"class.ZXing::Nullable", %"class.ZXing::Nullable", %"class.ZXing::Nullable", %"class.ZXing::Nullable", i32, i32, i32, i32 }
%"class.ZXing::Nullable" = type { i8, %"class.ZXing::ResultPoint" }
%"class.ZXing::ResultPoint" = type { %"struct.ZXing::PointT" }
%"struct.ZXing::PointT" = type { double, double }
%"class.std::vector" = type { %"struct.std::_Vector_base" }
%"struct.std::_Vector_base" = type { %"struct.std::_Vector_base<ZXing::Nullable<ZXing::Pdf417::Codeword>, std::allocator<ZXing::Nullable<ZXing::Pdf417::Codeword>>>::_Vector_impl" }
%"struct.std::_Vector_base<ZXing::Nullable<ZXing::Pdf417::Codeword>, std::allocator<ZXing::Nullable<ZXing::Pdf417::Codeword>>>::_Vector_impl" = type { %"struct.std::_Vector_base<ZXing::Nullable<ZXing::Pdf417::Codeword>, std::allocator<ZXing::Nullable<ZXing::Pdf417::Codeword>>>::_Vector_impl_data" }
%"struct.std::_Vector_base<ZXing::Nullable<ZXing::Pdf417::Codeword>, std::allocator<ZXing::Nullable<ZXing::Pdf417::Codeword>>>::_Vector_impl_data" = type { ptr, ptr, ptr }
%"class.ZXing::Nullable.0" = type { i8, %"class.ZXing::Pdf417::Codeword" }
%"class.ZXing::Pdf417::Codeword" = type { i32, i32, i32, i32, i32 }
%"class.__gnu_cxx::__normal_iterator" = type { ptr }

; Function Attrs: mustprogress nounwind uwtable
define linkonce_odr noundef nonnull align 8 dereferenceable(8) ptr @_ZNK9__gnu_cxx17__normal_iteratorIPN5ZXing8NullableINS1_6Pdf4178CodewordEEESt6vectorIS5_SaIS5_EEE4baseEv(ptr noundef nonnull align 8 dereferenceable(8) %0) #2 comdat align 2 {
  %2 = alloca ptr, align 8
  store ptr %0, ptr %2, align 8, !tbaa !47
  %3 = load ptr, ptr %2, align 8
  %4 = getelementptr inbounds nuw %"class.__gnu_cxx::__normal_iterator", ptr %3, i32 0, i32 0
  ret ptr %4
}

; Function Attrs: mustprogress nounwind uwtable
define linkonce_odr void @_ZN9__gnu_cxx17__normal_iteratorIPN5ZXing8NullableINS1_6Pdf4178CodewordEEESt6vectorIS5_SaIS5_EEEC2ERKS6_(ptr noundef nonnull align 8 dereferenceable(8) %0, ptr noundef nonnull align 8 dereferenceable(8) %1) unnamed_addr #2 comdat align 2 {
  %3 = alloca ptr, align 8
  %4 = alloca ptr, align 8
  store ptr %0, ptr %3, align 8, !tbaa !47
  store ptr %1, ptr %4, align 8, !tbaa !102
  %5 = load ptr, ptr %3, align 8
  %6 = getelementptr inbounds nuw %"class.__gnu_cxx::__normal_iterator", ptr %5, i32 0, i32 0
  %7 = load ptr, ptr %4, align 8, !tbaa !102
  %8 = load ptr, ptr %7, align 8, !tbaa !39
  store ptr %8, ptr %6, align 8, !tbaa !49
  ret void
}

; Function Attrs: mustprogress nounwind uwtable
define linkonce_odr noundef nonnull align 8 dereferenceable(8) ptr @_ZN9__gnu_cxx17__normal_iteratorIPN5ZXing8NullableINS1_6Pdf4178CodewordEEESt6vectorIS5_SaIS5_EEEppEv(ptr noundef nonnull align 8 dereferenceable(8) %0) #2 comdat align 2 {
  %2 = alloca ptr, align 8
  store ptr %0, ptr %2, align 8, !tbaa !47
  %3 = load ptr, ptr %2, align 8
  %4 = getelementptr inbounds nuw %"class.__gnu_cxx::__normal_iterator", ptr %3, i32 0, i32 0
  %5 = load ptr, ptr %4, align 8, !tbaa !49
  %6 = getelementptr inbounds nuw %"class.ZXing::Nullable.0", ptr %5, i32 1
  store ptr %6, ptr %4, align 8, !tbaa !49
  ret ptr %3
}

; Function Attrs: mustprogress nounwind uwtable
define linkonce_odr void @_ZN5ZXing6Pdf4178Codeword32setRowNumberAsRowIndicatorColumnEv(ptr noundef nonnull align 4 dereferenceable(20) %0) #2 comdat align 2 {
  %2 = alloca ptr, align 8
  store ptr %0, ptr %2, align 8, !tbaa !51
  %3 = load ptr, ptr %2, align 8
  %4 = getelementptr inbounds nuw %"class.ZXing::Pdf417::Codeword", ptr %3, i32 0, i32 3
  %5 = load i32, ptr %4, align 4, !tbaa !53
  %6 = sdiv i32 %5, 30
  %7 = mul nsw i32 %6, 3
  %8 = getelementptr inbounds nuw %"class.ZXing::Pdf417::Codeword", ptr %3, i32 0, i32 2
  %9 = load i32, ptr %8, align 4, !tbaa !54
  %10 = sdiv i32 %9, 3
  %11 = add nsw i32 %7, %10
  %12 = getelementptr inbounds nuw %"class.ZXing::Pdf417::Codeword", ptr %3, i32 0, i32 4
  store i32 %11, ptr %12, align 4, !tbaa !55
  ret void
}

; Function Attrs: mustprogress nounwind uwtable
define linkonce_odr noundef nonnull align 4 dereferenceable(20) ptr @_ZN5ZXing8NullableINS_6Pdf4178CodewordEE5valueEv(ptr noundef nonnull align 4 dereferenceable(24) %0) #2 comdat align 2 {
  %2 = alloca ptr, align 8
  store ptr %0, ptr %2, align 8, !tbaa !39
  %3 = load ptr, ptr %2, align 8
  %4 = getelementptr inbounds nuw %"class.ZXing::Nullable.0", ptr %3, i32 0, i32 1
  ret ptr %4
}

; Function Attrs: inlinehint mustprogress nounwind uwtable
define linkonce_odr noundef zeroext i1 @_ZN5ZXingneERKNS_8NullableINS_6Pdf4178CodewordEEEDn(ptr noundef nonnull align 4 dereferenceable(24) %0, ptr %1) #6 comdat {
  %3 = alloca ptr, align 8
  %4 = alloca ptr, align 8
  store ptr %0, ptr %3, align 8, !tbaa !39
  store ptr %1, ptr %4, align 8, !tbaa !40
  %5 = load ptr, ptr %3, align 8, !tbaa !39
  %6 = getelementptr inbounds nuw %"class.ZXing::Nullable.0", ptr %5, i32 0, i32 0
  %7 = load i8, ptr %6, align 4, !tbaa !42, !range !45, !noundef !46
  %8 = trunc i8 %7 to i1
  ret i1 %8
}

; Function Attrs: mustprogress nounwind uwtable
define linkonce_odr noundef nonnull align 4 dereferenceable(24) ptr @_ZNK9__gnu_cxx17__normal_iteratorIPN5ZXing8NullableINS1_6Pdf4178CodewordEEESt6vectorIS5_SaIS5_EEEdeEv(ptr noundef nonnull align 8 dereferenceable(8) %0) #2 comdat align 2 {
  %2 = alloca ptr, align 8
  store ptr %0, ptr %2, align 8, !tbaa !47
  %3 = load ptr, ptr %2, align 8
  %4 = getelementptr inbounds nuw %"class.__gnu_cxx::__normal_iterator", ptr %3, i32 0, i32 0
  %5 = load ptr, ptr %4, align 8, !tbaa !49
  ret ptr %5
}

; Function Attrs: mustprogress nounwind uwtable
define linkonce_odr noundef zeroext i1 @_ZN9__gnu_cxxeqIPN5ZXing8NullableINS1_6Pdf4178CodewordEEESt6vectorIS5_SaIS5_EEEEbRKNS_17__normal_iteratorIT_T0_EESF_QrqXeqcldtfp_4baseEcldtfp0_4baseERSt14convertible_toIbEE(ptr noundef nonnull align 8 dereferenceable(8) %0, ptr noundef nonnull align 8 dereferenceable(8) %1) #2 comdat {
  %3 = alloca ptr, align 8
  %4 = alloca ptr, align 8
  store ptr %0, ptr %3, align 8, !tbaa !47
  store ptr %1, ptr %4, align 8, !tbaa !47
  %5 = load ptr, ptr %3, align 8, !tbaa !47
  %6 = call noundef nonnull align 8 dereferenceable(8) ptr @_ZNK9__gnu_cxx17__normal_iteratorIPN5ZXing8NullableINS1_6Pdf4178CodewordEEESt6vectorIS5_SaIS5_EEE4baseEv(ptr noundef nonnull align 8 dereferenceable(8) %5) #15
  %7 = load ptr, ptr %6, align 8, !tbaa !39
  %8 = load ptr, ptr %4, align 8, !tbaa !47
  %9 = call noundef nonnull align 8 dereferenceable(8) ptr @_ZNK9__gnu_cxx17__normal_iteratorIPN5ZXing8NullableINS1_6Pdf4178CodewordEEESt6vectorIS5_SaIS5_EEE4baseEv(ptr noundef nonnull align 8 dereferenceable(8) %8) #15
  %10 = load ptr, ptr %9, align 8, !tbaa !39
  %11 = icmp eq ptr %7, %10
  ret i1 %11
}

; Function Attrs: mustprogress nounwind uwtable
define linkonce_odr ptr @_ZNSt6vectorIN5ZXing8NullableINS0_6Pdf4178CodewordEEESaIS4_EE3endEv(ptr noundef nonnull align 8 dereferenceable(24) %0) #2 comdat align 2 {
  %2 = alloca %"class.__gnu_cxx::__normal_iterator", align 8
  %3 = alloca ptr, align 8
  store ptr %0, ptr %3, align 8, !tbaa !26
  %4 = load ptr, ptr %3, align 8
  %5 = getelementptr inbounds nuw %"struct.std::_Vector_base", ptr %4, i32 0, i32 0
  %6 = getelementptr inbounds nuw %"struct.std::_Vector_base<ZXing::Nullable<ZXing::Pdf417::Codeword>, std::allocator<ZXing::Nullable<ZXing::Pdf417::Codeword>>>::_Vector_impl_data", ptr %5, i32 0, i32 1
  call void @_ZN9__gnu_cxx17__normal_iteratorIPN5ZXing8NullableINS1_6Pdf4178CodewordEEESt6vectorIS5_SaIS5_EEEC2ERKS6_(ptr noundef nonnull align 8 dereferenceable(8) %2, ptr noundef nonnull align 8 dereferenceable(8) %6) #15
  %7 = getelementptr inbounds nuw %"class.__gnu_cxx::__normal_iterator", ptr %2, i32 0, i32 0
  %8 = load ptr, ptr %7, align 8
  ret ptr %8
}

; Function Attrs: mustprogress nounwind uwtable
define linkonce_odr ptr @_ZNSt6vectorIN5ZXing8NullableINS0_6Pdf4178CodewordEEESaIS4_EE5beginEv(ptr noundef nonnull align 8 dereferenceable(24) %0) #2 comdat align 2 {
  %2 = alloca %"class.__gnu_cxx::__normal_iterator", align 8
  %3 = alloca ptr, align 8
  store ptr %0, ptr %3, align 8, !tbaa !26
  %4 = load ptr, ptr %3, align 8
  %5 = getelementptr inbounds nuw %"struct.std::_Vector_base", ptr %4, i32 0, i32 0
  %6 = getelementptr inbounds nuw %"struct.std::_Vector_base<ZXing::Nullable<ZXing::Pdf417::Codeword>, std::allocator<ZXing::Nullable<ZXing::Pdf417::Codeword>>>::_Vector_impl_data", ptr %5, i32 0, i32 0
  call void @_ZN9__gnu_cxx17__normal_iteratorIPN5ZXing8NullableINS1_6Pdf4178CodewordEEESt6vectorIS5_SaIS5_EEEC2ERKS6_(ptr noundef nonnull align 8 dereferenceable(8) %2, ptr noundef nonnull align 8 dereferenceable(8) %6) #15
  %7 = getelementptr inbounds nuw %"class.__gnu_cxx::__normal_iterator", ptr %2, i32 0, i32 0
  %8 = load ptr, ptr %7, align 8
  ret ptr %8
}

; Function Attrs: mustprogress nounwind uwtable
define linkonce_odr noundef nonnull align 8 dereferenceable(24) ptr @_ZN5ZXing6Pdf41721DetectionResultColumn12allCodewordsEv(ptr noundef nonnull align 8 dereferenceable(148) %0) #2 comdat align 2 {
  %2 = alloca ptr, align 8
  store ptr %0, ptr %2, align 8, !tbaa !3
  %3 = load ptr, ptr %2, align 8
  %4 = getelementptr inbounds nuw %"class.ZXing::Pdf417::DetectionResultColumn", ptr %3, i32 0, i32 1
  ret ptr %4
}

; Function Attrs: mustprogress uwtable
define void @_ZN5ZXing6Pdf41721DetectionResultColumn13setRowNumbersEv(ptr noundef nonnull align 8 dereferenceable(148) %0) #0 align 2 {
  %2 = alloca ptr, align 8
  %3 = alloca ptr, align 8
  %4 = alloca %"class.__gnu_cxx::__normal_iterator", align 8
  %5 = alloca %"class.__gnu_cxx::__normal_iterator", align 8
  %6 = alloca ptr, align 8
  store ptr %0, ptr %2, align 8, !tbaa !3
  %7 = load ptr, ptr %2, align 8
  call void @llvm.lifetime.start.p0(i64 8, ptr %3) #15
  %8 = call noundef nonnull align 8 dereferenceable(24) ptr @_ZN5ZXing6Pdf41721DetectionResultColumn12allCodewordsEv(ptr noundef nonnull align 8 dereferenceable(148) %7)
  store ptr %8, ptr %3, align 8, !tbaa !26
  call void @llvm.lifetime.start.p0(i64 8, ptr %4) #15
  %9 = load ptr, ptr %3, align 8, !tbaa !26
  %10 = call ptr @_ZNSt6vectorIN5ZXing8NullableINS0_6Pdf4178CodewordEEESaIS4_EE5beginEv(ptr noundef nonnull align 8 dereferenceable(24) %9) #15
  %11 = getelementptr inbounds nuw %"class.__gnu_cxx::__normal_iterator", ptr %4, i32 0, i32 0
  store ptr %10, ptr %11, align 8
  call void @llvm.lifetime.start.p0(i64 8, ptr %5) #15
  %12 = load ptr, ptr %3, align 8, !tbaa !26
  %13 = call ptr @_ZNSt6vectorIN5ZXing8NullableINS0_6Pdf4178CodewordEEESaIS4_EE3endEv(ptr noundef nonnull align 8 dereferenceable(24) %12) #15
  %14 = getelementptr inbounds nuw %"class.__gnu_cxx::__normal_iterator", ptr %5, i32 0, i32 0
  store ptr %13, ptr %14, align 8
  br label %15

15:                                               ; preds = %27, %1
  %16 = call noundef zeroext i1 @_ZN9__gnu_cxxeqIPN5ZXing8NullableINS1_6Pdf4178CodewordEEESt6vectorIS5_SaIS5_EEEEbRKNS_17__normal_iteratorIT_T0_EESF_QrqXeqcldtfp_4baseEcldtfp0_4baseERSt14convertible_toIbEE(ptr noundef nonnull align 8 dereferenceable(8) %4, ptr noundef nonnull align 8 dereferenceable(8) %5) #15
  %17 = xor i1 %16, true
  br i1 %17, label %19, label %18

18:                                               ; preds = %15
  call void @llvm.lifetime.end.p0(i64 8, ptr %5) #15
  call void @llvm.lifetime.end.p0(i64 8, ptr %4) #15
  call void @llvm.lifetime.end.p0(i64 8, ptr %3) #15
  br label %29

19:                                               ; preds = %15
  call void @llvm.lifetime.start.p0(i64 8, ptr %6) #15
  %20 = call noundef nonnull align 4 dereferenceable(24) ptr @_ZNK9__gnu_cxx17__normal_iteratorIPN5ZXing8NullableINS1_6Pdf4178CodewordEEESt6vectorIS5_SaIS5_EEEdeEv(ptr noundef nonnull align 8 dereferenceable(8) %4) #15
  store ptr %20, ptr %6, align 8, !tbaa !39
  %21 = load ptr, ptr %6, align 8, !tbaa !39
  %22 = call noundef zeroext i1 @_ZN5ZXingneERKNS_8NullableINS_6Pdf4178CodewordEEEDn(ptr noundef nonnull align 4 dereferenceable(24) %21, ptr null)
  br i1 %22, label %23, label %26

23:                                               ; preds = %19
  %24 = load ptr, ptr %6, align 8, !tbaa !39
  %25 = call noundef nonnull align 4 dereferenceable(20) ptr @_ZN5ZXing8NullableINS_6Pdf4178CodewordEE5valueEv(ptr noundef nonnull align 4 dereferenceable(24) %24)
  call void @_ZN5ZXing6Pdf4178Codeword32setRowNumberAsRowIndicatorColumnEv(ptr noundef nonnull align 4 dereferenceable(20) %25)
  br label %26

26:                                               ; preds = %23, %19
  call void @llvm.lifetime.end.p0(i64 8, ptr %6) #15
  br label %27

27:                                               ; preds = %26
  %28 = call noundef nonnull align 8 dereferenceable(8) ptr @_ZN9__gnu_cxx17__normal_iteratorIPN5ZXing8NullableINS1_6Pdf4178CodewordEEESt6vectorIS5_SaIS5_EEEppEv(ptr noundef nonnull align 8 dereferenceable(8) %4) #15
  br label %15

29:                                               ; preds = %18
  ret void
}