; Function Attrs: mustprogress nofree norecurse nosync nounwind memory(readwrite, inaccessiblemem: none) uwtable
define void @_ZN5ZXing6Pdf41721DetectionResultColumn13setRowNumbersEv(ptr noundef nonnull readonly align 8 captures(none) dereferenceable(148) %0) local_unnamed_addr #5 align 2 {
  %2 = getelementptr inbounds nuw i8, ptr %0, i64 120
  %3 = load ptr, ptr %2, align 8, !tbaa !36
  %4 = getelementptr inbounds nuw i8, ptr %0, i64 128
  %5 = load ptr, ptr %4, align 8, !tbaa !36
  %6 = icmp eq ptr %3, %5
  br i1 %6, label %._crit_edge, label %.lr.ph

._crit_edge:                                      ; preds = %19, %1
  ret void

.lr.ph:                                           ; preds = %1, %19
  %.sroa.05.08 = phi ptr [ %20, %19 ], [ %3, %1 ]
  %7 = load i8, ptr %.sroa.05.08, align 4, !tbaa !25, !range !28, !noundef !29
  %8 = trunc nuw i8 %7 to i1
  br i1 %8, label %9, label %19

9:                                                ; preds = %.lr.ph
  %10 = getelementptr inbounds nuw i8, ptr %.sroa.05.08, i64 16
  %11 = load i32, ptr %10, align 4, !tbaa !37
  %12 = sdiv i32 %11, 30
  %13 = mul nsw i32 %12, 3
  %14 = getelementptr inbounds nuw i8, ptr %.sroa.05.08, i64 12
  %15 = load i32, ptr %14, align 4, !tbaa !38
  %16 = sdiv i32 %15, 3
  %17 = add nsw i32 %13, %16
  %18 = getelementptr inbounds nuw i8, ptr %.sroa.05.08, i64 20
  store i32 %17, ptr %18, align 4, !tbaa !35
  br label %19

19:                                               ; preds = %9, %.lr.ph
  %20 = getelementptr inbounds nuw i8, ptr %.sroa.05.08, i64 24
  %21 = icmp eq ptr %20, %5
  br i1 %21, label %._crit_edge, label %.lr.ph
}